Certificate:
    Data:
        Version: 3 (0x2)
        Serial Number: 1 (0x1)
        Signature Algorithm: sha256WithRSAEncryption
        Issuer: C=CN, ST=JiangXi, L=YiChun, O=Kingtous, OU=Kingtous, CN=Kingtous/emailAddress=me@kingtous.cn
        Validity
            Not Before: Mar 20 13:07:28 2021 GMT
            Not After : Mar 20 13:07:28 2022 GMT
        Subject: C=CN, ST=JiangXi, O=Kingtous, OU=Kingtous, CN=Kingtous/emailAddress=me@kingtous.cn
        Subject Public Key Info:
            Public Key Algorithm: rsaEncryption
                RSA Public-Key: (1024 bit)
                Modulus:
                    00:b7:e6:48:96:3d:87:37:2e:ce:47:fa:c5:fc:21:
                    2d:8c:1a:64:c0:7a:55:10:c5:70:af:99:97:bb:6c:
                    3a:b1:b3:ff:c7:68:7e:04:70:a1:a1:5c:77:61:75:
                    85:07:f5:de:5b:b0:ea:dd:b7:1a:b7:65:bc:1b:75:
                    5b:d1:70:97:fc:c7:ae:8e:98:56:d6:c6:c2:0b:9e:
                    a4:f1:56:ee:c2:82:e7:aa:05:4d:5a:f0:36:9d:8c:
                    ea:47:3f:7d:5f:33:73:f1:a1:38:13:c8:f7:c5:9e:
                    f9:8e:3e:f5:4c:b8:2a:9c:58:b4:9c:1b:b5:86:b6:
                    fc:fb:78:7d:6e:46:d4:83:4b
                Exponent: 65537 (0x10001)
        X509v3 extensions:
            X509v3 Basic Constraints: 
                CA:FALSE
            Netscape Comment: 
                OpenSSL Generated Certificate
            X509v3 Subject Key Identifier: 
                E0:62:CE:20:7D:32:89:C7:43:5E:85:97:78:7D:5D:33:AE:F2:DE:12
            X509v3 Authority Key Identifier: 
                DirName:/C=CN/ST=JiangXi/L=YiChun/O=Kingtous/OU=Kingtous/CN=Kingtous/emailAddress=me@kingtous.cn
                serial:35:BA:E8:21:9D:5B:3C:C7:99:0D:DA:DA:4C:98:87:8F:BF:69:A6:9B

    Signature Algorithm: sha256WithRSAEncryption
         15:7c:54:d6:e5:71:e1:55:ef:40:1b:fd:d9:29:cf:e0:73:3f:
         f1:39:6d:16:56:de:d6:b4:5e:30:ca:80:2c:bf:05:96:8c:9a:
         01:e2:bc:09:19:1c:93:b2:a8:41:3e:00:f4:d9:db:ca:7c:ed:
         cd:9a:8b:64:67:48:e1:7f:27:db:49:e9:37:69:b7:ed:e6:e5:
         09:6e:70:87:52:62:6f:08:90:bf:db:95:bc:29:26:1c:fd:22:
         31:a4:29:52:ad:2e:4c:5d:3f:92:11:55:04:d7:89:6f:1c:21:
         1b:53:9a:c8:e2:ed:21:62:23:89:61:25:c5:94:ab:7c:01:04:
         f0:e0:12:34:e1:cf:b1:c9:e7:f8:6d:f4:cc:14:86:5f:12:1f:
         7f:d9:63:5b:2f:9f:4b:04:e1:24:73:3f:ef:e7:79:6b:86:48:
         5c:f5:9e:c1:5c:d6:f6:f0:ff:36:7a:41:56:02:dc:1e:5b:7f:
         84:e2:3f:4d:d7:73:37:5f:28:34:f0:93:f4:28:dd:92:99:fa:
         06:52:e7:99:89:05:78:25:f7:6d:fe:af:11:ff:d8:49:10:a2:
         f4:27:82:d5:ad:a8:af:67:e9:ef:84:00:2b:cf:cd:79:bd:61:
         8d:bb:ce:b1:02:f4:2d:f2:b5:c8:ed:e6:d9:5b:b6:c7:d2:cf:
         95:7c:85:85
-----BEGIN CERTIFICATE-----
MIIECjCCAvKgAwIBAgIBATANBgkqhkiG9w0BAQsFADCBiDELMAkGA1UEBhMCQ04x
EDAOBgNVBAgMB0ppYW5nWGkxDzANBgNVBAcMBllpQ2h1bjERMA8GA1UECgwIS2lu
Z3RvdXMxETAPBgNVBAsMCEtpbmd0b3VzMREwDwYDVQQDDAhLaW5ndG91czEdMBsG
CSqGSIb3DQEJARYObWVAa2luZ3RvdXMuY24wHhcNMjEwMzIwMTMwNzI4WhcNMjIw
MzIwMTMwNzI4WjB3MQswCQYDVQQGEwJDTjEQMA4GA1UECAwHSmlhbmdYaTERMA8G
A1UECgwIS2luZ3RvdXMxETAPBgNVBAsMCEtpbmd0b3VzMREwDwYDVQQDDAhLaW5n
dG91czEdMBsGCSqGSIb3DQEJARYObWVAa2luZ3RvdXMuY24wgZ8wDQYJKoZIhvcN
AQEBBQADgY0AMIGJAoGBALfmSJY9hzcuzkf6xfwhLYwaZMB6VRDFcK+Zl7tsOrGz
/8dofgRwoaFcd2F1hQf13luw6t23GrdlvBt1W9Fwl/zHro6YVtbGwguepPFW7sKC
56oFTVrwNp2M6kc/fV8zc/GhOBPI98We+Y4+9Uy4KpxYtJwbtYa2/Pt4fW5G1INL
AgMBAAGjggERMIIBDTAJBgNVHRMEAjAAMCwGCWCGSAGG+EIBDQQfFh1PcGVuU1NM
IEdlbmVyYXRlZCBDZXJ0aWZpY2F0ZTAdBgNVHQ4EFgQU4GLOIH0yicdDXoWXeH1d
M67y3hIwgbIGA1UdIwSBqjCBp6GBjqSBizCBiDELMAkGA1UEBhMCQ04xEDAOBgNV
BAgMB0ppYW5nWGkxDzANBgNVBAcMBllpQ2h1bjERMA8GA1UECgwIS2luZ3RvdXMx
ETAPBgNVBAsMCEtpbmd0b3VzMREwDwYDVQQDDAhLaW5ndG91czEdMBsGCSqGSIb3
DQEJARYObWVAa2luZ3RvdXMuY26CFDW66CGdWzzHmQ3a2kyYh4+/aaabMA0GCSqG
SIb3DQEBCwUAA4IBAQAVfFTW5XHhVe9AG/3ZKc/gcz/xOW0WVt7WtF4wyoAsvwWW
jJoB4rwJGRyTsqhBPgD02dvKfO3NmotkZ0jhfyfbSek3abft5uUJbnCHUmJvCJC/
25W8KSYc/SIxpClSrS5MXT+SEVUE14lvHCEbU5rI4u0hYiOJYSXFlKt8AQTw4BI0
4c+xyef4bfTMFIZfEh9/2WNbL59LBOEkcz/v53lrhkhc9Z7BXNb28P82ekFWAtwe
W3+E4j9N13M3Xyg08JP0KN2SmfoGUueZiQV4Jfdt/q8R/9hJEKL0J4LVraivZ+nv
hAArz815vWGNu86xAvQt8rXI7ebZW7bH0s+VfIWF
-----END CERTIFICATE-----
